target datalayout = "e-m:e-p270:32:32-p271:32:32-p272:64:64-i64:64-i128:128-f80:128-n8:16:32:64-S128"
target triple = "x86_64-pc-linux-gnu"

@.str = private unnamed_addr constant [5 x i8] c"HOST\00", align 1
@.str.1 = private unnamed_addr constant [5 x i8] c"DX11\00", align 1
@.str.2 = private unnamed_addr constant [6 x i8] c"VAAPI\00", align 1
@.str.3 = private unnamed_addr constant [8 x i8] c"UNKNOWN\00", align 1

; Function Attrs: mustprogress nounwind uwtable
define linkonce_odr hidden void @_ZN2cv4util23suppress_unused_warningIbEEvRKT_(ptr noundef nonnull align 1 dereferenceable(1) %0) #2 comdat {
  %2 = alloca ptr, align 8
  store ptr %0, ptr %2, align 8, !tbaa !9
  ret void
}

; Function Attrs: mustprogress uwtable
define noundef ptr @_ZN2cv4gapi3wip6onevpl10to_cstringENS2_9AccelTypeE(i8 noundef zeroext %0) #0 {
  %2 = alloca ptr, align 8
  %3 = alloca i8, align 1
  %4 = alloca i8, align 1
  store i8 %0, ptr %3, align 1, !tbaa !3
  %5 = load i8, ptr %3, align 1, !tbaa !3
  switch i8 %5, label %9 [
    i8 0, label %6
    i8 1, label %7
    i8 2, label %8
  ]

6:                                                ; preds = %1
  store ptr @.str, ptr %2, align 8
  br label %11

7:                                                ; preds = %1
  store ptr @.str.1, ptr %2, align 8
  br label %11

8:                                                ; preds = %1
  store ptr @.str.2, ptr %2, align 8
  br label %11

9:                                                ; preds = %1
  call void @llvm.lifetime.start.p0(i64 1, ptr %4) #13
  store i8 0, ptr %4, align 1, !tbaa !7
  call void @_ZN2cv4util23suppress_unused_warningIbEEvRKT_(ptr noundef nonnull align 1 dereferenceable(1) %4)
  call void @llvm.lifetime.end.p0(i64 1, ptr %4) #13
  br label %10

10:                                               ; preds = %9
  store ptr @.str.3, ptr %2, align 8
  br label %11

11:                                               ; preds = %10, %8, %7, %6
  %12 = load ptr, ptr %2, align 8
  ret ptr %12
}